target datalayout = "e-m:e-p270:32:32-p271:32:32-p272:64:64-i64:64-i128:128-f80:128-n8:16:32:64-S128"
target triple = "x86_64-pc-linux-gnu"

%struct.nghttp2_frame_hd = type { i64, i32, i8, i8, i8 }
%struct.nghttp2_extension = type { %struct.nghttp2_frame_hd, ptr }
%struct.nghttp2_ext_altsvc = type { ptr, i64, ptr, i64 }
%struct.nghttp2_bufs = type { ptr, ptr, ptr, i64, i64, i64, i64, i64 }
%struct.nghttp2_buf_chain = type { ptr, %struct.nghttp2_buf }
%struct.nghttp2_buf = type { ptr, ptr, ptr, ptr, ptr }

@.str.1 = private unnamed_addr constant [113 x i8] c"generated/home/dtcxzyw/WorkSpace/Projects/compilers/llvm-opt-benchmark/bench/nghttp2/nghttp2/lib/nghttp2_frame.c\00", align 1
@.str.5 = private unnamed_addr constant [75 x i8] c"nghttp2_buf_avail(buf) >= 2 + altsvc->origin_len + altsvc->field_value_len\00", align 1
@__PRETTY_FUNCTION__.nghttp2_frame_pack_altsvc = private unnamed_addr constant [68 x i8] c"void nghttp2_frame_pack_altsvc(nghttp2_bufs *, nghttp2_extension *)\00", align 1
@.str.6 = private unnamed_addr constant [8 x i8] c"rv == 0\00", align 1

; Function Attrs: nounwind uwtable
define hidden void @nghttp2_frame_pack_frame_hd(ptr noundef %0, ptr noundef %1) #0 {
  %3 = alloca ptr, align 8
  %4 = alloca ptr, align 8
  store ptr %0, ptr %3, align 8, !tbaa !3
  store ptr %1, ptr %4, align 8, !tbaa !8
  %5 = load ptr, ptr %3, align 8, !tbaa !3
  %6 = getelementptr inbounds i8, ptr %5, i64 0
  %7 = load ptr, ptr %4, align 8, !tbaa !8
  %8 = getelementptr inbounds nuw %struct.nghttp2_frame_hd, ptr %7, i32 0, i32 0
  %9 = load i64, ptr %8, align 8, !tbaa !9
  %10 = shl i64 %9, 8
  %11 = trunc i64 %10 to i32
  call void @nghttp2_put_uint32be(ptr noundef %6, i32 noundef %11)
  %12 = load ptr, ptr %4, align 8, !tbaa !8
  %13 = getelementptr inbounds nuw %struct.nghttp2_frame_hd, ptr %12, i32 0, i32 2
  %14 = load i8, ptr %13, align 4, !tbaa !13
  %15 = load ptr, ptr %3, align 8, !tbaa !3
  %16 = getelementptr inbounds i8, ptr %15, i64 3
  store i8 %14, ptr %16, align 1, !tbaa !14
  %17 = load ptr, ptr %4, align 8, !tbaa !8
  %18 = getelementptr inbounds nuw %struct.nghttp2_frame_hd, ptr %17, i32 0, i32 3
  %19 = load i8, ptr %18, align 1, !tbaa !15
  %20 = load ptr, ptr %3, align 8, !tbaa !3
  %21 = getelementptr inbounds i8, ptr %20, i64 4
  store i8 %19, ptr %21, align 1, !tbaa !14
  %22 = load ptr, ptr %3, align 8, !tbaa !3
  %23 = getelementptr inbounds i8, ptr %22, i64 5
  %24 = load ptr, ptr %4, align 8, !tbaa !8
  %25 = getelementptr inbounds nuw %struct.nghttp2_frame_hd, ptr %24, i32 0, i32 1
  %26 = load i32, ptr %25, align 8, !tbaa !16
  call void @nghttp2_put_uint32be(ptr noundef %23, i32 noundef %26)
  ret void
}

; Function Attrs: nounwind uwtable
define hidden void @nghttp2_frame_pack_altsvc(ptr noundef %0, ptr noundef %1) #0 {
  %3 = alloca ptr, align 8
  %4 = alloca ptr, align 8
  %5 = alloca i32, align 4
  %6 = alloca ptr, align 8
  %7 = alloca ptr, align 8
  store ptr %0, ptr %3, align 8, !tbaa !8
  store ptr %1, ptr %4, align 8, !tbaa !8
  call void @llvm.lifetime.start.p0(i64 4, ptr %5) #7
  call void @llvm.lifetime.start.p0(i64 8, ptr %6) #7
  call void @llvm.lifetime.start.p0(i64 8, ptr %7) #7
  %8 = load ptr, ptr %4, align 8, !tbaa !8
  %9 = getelementptr inbounds nuw %struct.nghttp2_extension, ptr %8, i32 0, i32 1
  %10 = load ptr, ptr %9, align 8, !tbaa !49
  store ptr %10, ptr %7, align 8, !tbaa !8
  %11 = load ptr, ptr %3, align 8, !tbaa !8
  %12 = getelementptr inbounds nuw %struct.nghttp2_bufs, ptr %11, i32 0, i32 0
  %13 = load ptr, ptr %12, align 8, !tbaa !70
  %14 = getelementptr inbounds nuw %struct.nghttp2_buf_chain, ptr %13, i32 0, i32 1
  store ptr %14, ptr %6, align 8, !tbaa !8
  %15 = load ptr, ptr %6, align 8, !tbaa !8
  %16 = getelementptr inbounds nuw %struct.nghttp2_buf, ptr %15, i32 0, i32 1
  %17 = load ptr, ptr %16, align 8, !tbaa !86
  %18 = load ptr, ptr %6, align 8, !tbaa !8
  %19 = getelementptr inbounds nuw %struct.nghttp2_buf, ptr %18, i32 0, i32 3
  %20 = load ptr, ptr %19, align 8, !tbaa !76
  %21 = ptrtoint ptr %17 to i64
  %22 = ptrtoint ptr %20 to i64
  %23 = sub i64 %21, %22
  %24 = load ptr, ptr %7, align 8, !tbaa !8
  %25 = getelementptr inbounds nuw %struct.nghttp2_ext_altsvc, ptr %24, i32 0, i32 1
  %26 = load i64, ptr %25, align 8, !tbaa !53
  %27 = add i64 2, %26
  %28 = load ptr, ptr %7, align 8, !tbaa !8
  %29 = getelementptr inbounds nuw %struct.nghttp2_ext_altsvc, ptr %28, i32 0, i32 3
  %30 = load i64, ptr %29, align 8, !tbaa !55
  %31 = add i64 %27, %30
  %32 = icmp uge i64 %23, %31
  br i1 %32, label %33, label %34

33:                                               ; preds = %2
  br label %35

34:                                               ; preds = %2
  call void @__assert_fail(ptr noundef @.str.5, ptr noundef @.str.1, i32 noundef 728, ptr noundef @__PRETTY_FUNCTION__.nghttp2_frame_pack_altsvc) #8
  unreachable

35:                                               ; preds = %33
  %36 = load ptr, ptr %6, align 8, !tbaa !8
  %37 = getelementptr inbounds nuw %struct.nghttp2_buf, ptr %36, i32 0, i32 2
  %38 = load ptr, ptr %37, align 8, !tbaa !74
  %39 = getelementptr inbounds i8, ptr %38, i64 -9
  store ptr %39, ptr %37, align 8, !tbaa !74
  %40 = load ptr, ptr %6, align 8, !tbaa !8
  %41 = getelementptr inbounds nuw %struct.nghttp2_buf, ptr %40, i32 0, i32 2
  %42 = load ptr, ptr %41, align 8, !tbaa !74
  %43 = load ptr, ptr %4, align 8, !tbaa !8
  %44 = getelementptr inbounds nuw %struct.nghttp2_extension, ptr %43, i32 0, i32 0
  call void @nghttp2_frame_pack_frame_hd(ptr noundef %42, ptr noundef %44)
  %45 = load ptr, ptr %6, align 8, !tbaa !8
  %46 = getelementptr inbounds nuw %struct.nghttp2_buf, ptr %45, i32 0, i32 3
  %47 = load ptr, ptr %46, align 8, !tbaa !76
  %48 = load ptr, ptr %7, align 8, !tbaa !8
  %49 = getelementptr inbounds nuw %struct.nghttp2_ext_altsvc, ptr %48, i32 0, i32 1
  %50 = load i64, ptr %49, align 8, !tbaa !53
  %51 = trunc i64 %50 to i16
  call void @nghttp2_put_uint16be(ptr noundef %47, i16 noundef zeroext %51)
  %52 = load ptr, ptr %6, align 8, !tbaa !8
  %53 = getelementptr inbounds nuw %struct.nghttp2_buf, ptr %52, i32 0, i32 3
  %54 = load ptr, ptr %53, align 8, !tbaa !76
  %55 = getelementptr inbounds i8, ptr %54, i64 2
  store ptr %55, ptr %53, align 8, !tbaa !76
  %56 = load ptr, ptr %3, align 8, !tbaa !8
  %57 = load ptr, ptr %7, align 8, !tbaa !8
  %58 = getelementptr inbounds nuw %struct.nghttp2_ext_altsvc, ptr %57, i32 0, i32 0
  %59 = load ptr, ptr %58, align 8, !tbaa !51
  %60 = load ptr, ptr %7, align 8, !tbaa !8
  %61 = getelementptr inbounds nuw %struct.nghttp2_ext_altsvc, ptr %60, i32 0, i32 1
  %62 = load i64, ptr %61, align 8, !tbaa !53
  %63 = call i32 @nghttp2_bufs_add(ptr noundef %56, ptr noundef %59, i64 noundef %62)
  store i32 %63, ptr %5, align 4, !tbaa !19
  %64 = load i32, ptr %5, align 4, !tbaa !19
  %65 = icmp eq i32 %64, 0
  br i1 %65, label %66, label %67

66:                                               ; preds = %35
  br label %68

67:                                               ; preds = %35
  call void @__assert_fail(ptr noundef @.str.6, ptr noundef @.str.1, i32 noundef 739, ptr noundef @__PRETTY_FUNCTION__.nghttp2_frame_pack_altsvc) #8
  unreachable

68:                                               ; preds = %66
  %69 = load ptr, ptr %3, align 8, !tbaa !8
  %70 = load ptr, ptr %7, align 8, !tbaa !8
  %71 = getelementptr inbounds nuw %struct.nghttp2_ext_altsvc, ptr %70, i32 0, i32 2
  %72 = load ptr, ptr %71, align 8, !tbaa !54
  %73 = load ptr, ptr %7, align 8, !tbaa !8
  %74 = getelementptr inbounds nuw %struct.nghttp2_ext_altsvc, ptr %73, i32 0, i32 3
  %75 = load i64, ptr %74, align 8, !tbaa !55
  %76 = call i32 @nghttp2_bufs_add(ptr noundef %69, ptr noundef %72, i64 noundef %75)
  store i32 %76, ptr %5, align 4, !tbaa !19
  %77 = load i32, ptr %5, align 4, !tbaa !19
  %78 = icmp eq i32 %77, 0
  br i1 %78, label %79, label %80

79:                                               ; preds = %68
  br label %81

80:                                               ; preds = %68
  call void @__assert_fail(ptr noundef @.str.6, ptr noundef @.str.1, i32 noundef 743, ptr noundef @__PRETTY_FUNCTION__.nghttp2_frame_pack_altsvc) #8
  unreachable

81:                                               ; preds = %79
  call void @llvm.lifetime.end.p0(i64 8, ptr %7) #7
  call void @llvm.lifetime.end.p0(i64 8, ptr %6) #7
  call void @llvm.lifetime.end.p0(i64 4, ptr %5) #7
  ret void
}