; Function Attrs: nounwind uwtable
define hidden void @nghttp2_frame_pack_altsvc(ptr noundef %0, ptr noundef readonly captures(none) %1) local_unnamed_addr #0 {
  %3 = getelementptr inbounds nuw i8, ptr %1, i64 16
  %4 = load ptr, ptr %3, align 8, !tbaa !46
  %5 = load ptr, ptr %0, align 8, !tbaa !65
  %6 = getelementptr inbounds nuw i8, ptr %5, i64 16
  %7 = load ptr, ptr %6, align 8, !tbaa !79
  %8 = getelementptr inbounds nuw i8, ptr %5, i64 32
  %9 = load ptr, ptr %8, align 8, !tbaa !71
  %10 = ptrtoint ptr %7 to i64
  %11 = ptrtoint ptr %9 to i64
  %12 = sub i64 %10, %11
  %13 = getelementptr inbounds nuw i8, ptr %4, i64 8
  %14 = load i64, ptr %13, align 8, !tbaa !50
  %15 = add i64 %14, 2
  %16 = getelementptr inbounds nuw i8, ptr %4, i64 24
  %17 = load i64, ptr %16, align 8, !tbaa !52
  %18 = add i64 %15, %17
  %.not = icmp ult i64 %12, %18
  br i1 %.not, label %19, label %20

19:                                               ; preds = %2
  tail call void @__assert_fail(ptr noundef nonnull @.str.5, ptr noundef nonnull @.str.1, i32 noundef 728, ptr noundef nonnull @__PRETTY_FUNCTION__.nghttp2_frame_pack_altsvc) #19
  unreachable

20:                                               ; preds = %2
  %21 = getelementptr inbounds nuw i8, ptr %5, i64 24
  %22 = load ptr, ptr %21, align 8, !tbaa !69
  %23 = getelementptr inbounds i8, ptr %22, i64 -9
  store ptr %23, ptr %21, align 8, !tbaa !69
  %24 = load i64, ptr %1, align 8, !tbaa !3
  %.tr.i = trunc i64 %24 to i32
  %25 = shl i32 %.tr.i, 8
  tail call void @nghttp2_put_uint32be(ptr noundef nonnull %23, i32 noundef %25) #18
  %26 = getelementptr inbounds nuw i8, ptr %1, i64 12
  %27 = load i8, ptr %26, align 4, !tbaa !9
  %28 = getelementptr inbounds i8, ptr %22, i64 -6
  store i8 %27, ptr %28, align 1, !tbaa !10
  %29 = getelementptr inbounds nuw i8, ptr %1, i64 13
  %30 = load i8, ptr %29, align 1, !tbaa !11
  %31 = getelementptr inbounds i8, ptr %22, i64 -5
  store i8 %30, ptr %31, align 1, !tbaa !10
  %32 = getelementptr inbounds i8, ptr %22, i64 -4
  %33 = getelementptr inbounds nuw i8, ptr %1, i64 8
  %34 = load i32, ptr %33, align 8, !tbaa !12
  tail call void @nghttp2_put_uint32be(ptr noundef nonnull %32, i32 noundef %34) #18
  %35 = load ptr, ptr %8, align 8, !tbaa !71
  %36 = load i64, ptr %13, align 8, !tbaa !50
  %37 = trunc i64 %36 to i16
  tail call void @nghttp2_put_uint16be(ptr noundef %35, i16 noundef zeroext %37) #18
  %38 = load ptr, ptr %8, align 8, !tbaa !71
  %39 = getelementptr inbounds nuw i8, ptr %38, i64 2
  store ptr %39, ptr %8, align 8, !tbaa !71
  %40 = load ptr, ptr %4, align 8, !tbaa !48
  %41 = load i64, ptr %13, align 8, !tbaa !50
  %42 = tail call i32 @nghttp2_bufs_add(ptr noundef nonnull %0, ptr noundef %40, i64 noundef %41) #18
  %43 = icmp eq i32 %42, 0
  br i1 %43, label %45, label %44

44:                                               ; preds = %20
  tail call void @__assert_fail(ptr noundef nonnull @.str.6, ptr noundef nonnull @.str.1, i32 noundef 739, ptr noundef nonnull @__PRETTY_FUNCTION__.nghttp2_frame_pack_altsvc) #19
  unreachable

45:                                               ; preds = %20
  %46 = getelementptr inbounds nuw i8, ptr %4, i64 16
  %47 = load ptr, ptr %46, align 8, !tbaa !51
  %48 = load i64, ptr %16, align 8, !tbaa !52
  %49 = tail call i32 @nghttp2_bufs_add(ptr noundef nonnull %0, ptr noundef %47, i64 noundef %48) #18
  %50 = icmp eq i32 %49, 0
  br i1 %50, label %52, label %51

51:                                               ; preds = %45
  tail call void @__assert_fail(ptr noundef nonnull @.str.6, ptr noundef nonnull @.str.1, i32 noundef 743, ptr noundef nonnull @__PRETTY_FUNCTION__.nghttp2_frame_pack_altsvc) #19
  unreachable

52:                                               ; preds = %45
  ret void
}